target datalayout = "e-m:e-p270:32:32-p271:32:32-p272:64:64-i64:64-i128:128-f80:128-n8:16:32:64-S128"
target triple = "x86_64-pc-linux-gnu"

@string2ul_base16_async_signal_safe.ascii_to_dec = internal global [3 x i8] c"0W7", align 1

; Function Attrs: nounwind uwtable
define internal i32 @safe_is_c_in_range(i8 noundef signext %0, i8 noundef signext %1, i8 noundef signext %2) #0 {
  %4 = alloca i32, align 4
  %5 = alloca i8, align 1
  %6 = alloca i8, align 1
  %7 = alloca i8, align 1
  store i8 %0, ptr %5, align 1, !tbaa !12
  store i8 %1, ptr %6, align 1, !tbaa !12
  store i8 %2, ptr %7, align 1, !tbaa !12
  %8 = load i8, ptr %5, align 1, !tbaa !12
  %9 = sext i8 %8 to i32
  %10 = load i8, ptr %6, align 1, !tbaa !12
  %11 = sext i8 %10 to i32
  %12 = icmp sge i32 %9, %11
  br i1 %12, label %13, label %20

13:                                               ; preds = %3
  %14 = load i8, ptr %5, align 1, !tbaa !12
  %15 = sext i8 %14 to i32
  %16 = load i8, ptr %7, align 1, !tbaa !12
  %17 = sext i8 %16 to i32
  %18 = icmp sle i32 %15, %17
  br i1 %18, label %19, label %20

19:                                               ; preds = %13
  store i32 1, ptr %4, align 4
  br label %21

20:                                               ; preds = %13, %3
  store i32 0, ptr %4, align 4
  br label %21

21:                                               ; preds = %20, %19
  %22 = load i32, ptr %4, align 4
  ret i32 %22
}

; Function Attrs: nounwind uwtable
define internal i32 @base_16_char_type(i8 noundef signext %0) #0 {
  %2 = alloca i32, align 4
  %3 = alloca i8, align 1
  store i8 %0, ptr %3, align 1, !tbaa !12
  %4 = load i8, ptr %3, align 1, !tbaa !12
  %5 = call i32 @safe_is_c_in_range(i8 noundef signext %4, i8 noundef signext 48, i8 noundef signext 57)
  %6 = icmp ne i32 %5, 0
  br i1 %6, label %7, label %8

7:                                                ; preds = %1
  store i32 0, ptr %2, align 4
  br label %19

8:                                                ; preds = %1
  %9 = load i8, ptr %3, align 1, !tbaa !12
  %10 = call i32 @safe_is_c_in_range(i8 noundef signext %9, i8 noundef signext 97, i8 noundef signext 102)
  %11 = icmp ne i32 %10, 0
  br i1 %11, label %12, label %13

12:                                               ; preds = %8
  store i32 1, ptr %2, align 4
  br label %19

13:                                               ; preds = %8
  %14 = load i8, ptr %3, align 1, !tbaa !12
  %15 = call i32 @safe_is_c_in_range(i8 noundef signext %14, i8 noundef signext 65, i8 noundef signext 70)
  %16 = icmp ne i32 %15, 0
  br i1 %16, label %17, label %18

17:                                               ; preds = %13
  store i32 2, ptr %2, align 4
  br label %19

18:                                               ; preds = %13
  store i32 -1, ptr %2, align 4
  br label %19

19:                                               ; preds = %18, %17, %12, %7
  %20 = load i32, ptr %2, align 4
  ret i32 %20
}

; Function Attrs: nounwind uwtable
define dso_local i32 @string2ul_base16_async_signal_safe(ptr noundef %0, i64 noundef %1, ptr noundef %2) #0 {
  %4 = alloca i32, align 4
  %5 = alloca ptr, align 8
  %6 = alloca i64, align 8
  %7 = alloca ptr, align 8
  %8 = alloca i32, align 4
  %9 = alloca i64, align 8
  %10 = alloca i64, align 8
  %11 = alloca i32, align 4
  %12 = alloca i64, align 8
  %13 = alloca i32, align 4
  store ptr %0, ptr %5, align 8, !tbaa !5
  store i64 %1, ptr %6, align 8, !tbaa !29
  store ptr %2, ptr %7, align 8, !tbaa !41
  call void @llvm.lifetime.start.p0(i64 4, ptr %8) #13
  store i32 0, ptr %8, align 4, !tbaa !10
  call void @llvm.lifetime.start.p0(i64 8, ptr %9) #13
  store i64 0, ptr %9, align 8, !tbaa !29
  call void @llvm.lifetime.start.p0(i64 8, ptr %10) #13
  store i64 0, ptr %10, align 8, !tbaa !29
  call void @llvm.lifetime.start.p0(i64 4, ptr %11) #13
  store i32 16, ptr %11, align 4, !tbaa !10
  br label %14

14:                                               ; preds = %65, %3
  %15 = load ptr, ptr %5, align 8, !tbaa !5
  %16 = load i64, ptr %9, align 8, !tbaa !29
  %17 = getelementptr inbounds nuw i8, ptr %15, i64 %16
  %18 = load i8, ptr %17, align 1, !tbaa !12
  %19 = call i32 @base_16_char_type(i8 noundef signext %18)
  store i32 %19, ptr %8, align 4, !tbaa !10
  %20 = icmp ne i32 -1, %19
  br i1 %20, label %21, label %25

21:                                               ; preds = %14
  %22 = load i64, ptr %9, align 8, !tbaa !29
  %23 = load i64, ptr %6, align 8, !tbaa !29
  %24 = icmp ult i64 %22, %23
  br label %25

25:                                               ; preds = %21, %14
  %26 = phi i1 [ false, %14 ], [ %24, %21 ]
  br i1 %26, label %27, label %66

27:                                               ; preds = %25
  call void @llvm.lifetime.start.p0(i64 8, ptr %12) #13
  %28 = load ptr, ptr %5, align 8, !tbaa !5
  %29 = load i64, ptr %9, align 8, !tbaa !29
  %30 = getelementptr inbounds nuw i8, ptr %28, i64 %29
  %31 = load i8, ptr %30, align 1, !tbaa !12
  %32 = sext i8 %31 to i32
  %33 = load i32, ptr %8, align 4, !tbaa !10
  %34 = sext i32 %33 to i64
  %35 = getelementptr inbounds [3 x i8], ptr @string2ul_base16_async_signal_safe.ascii_to_dec, i64 0, i64 %34
  %36 = load i8, ptr %35, align 1, !tbaa !12
  %37 = sext i8 %36 to i32
  %38 = sub nsw i32 %32, %37
  %39 = sext i32 %38 to i64
  store i64 %39, ptr %12, align 8, !tbaa !29
  %40 = load i64, ptr %10, align 8, !tbaa !29
  %41 = load i32, ptr %11, align 4, !tbaa !10
  %42 = sext i32 %41 to i64
  %43 = udiv i64 -1, %42
  %44 = icmp ugt i64 %40, %43
  br i1 %44, label %53, label %45

45:                                               ; preds = %27
  %46 = load i64, ptr %10, align 8, !tbaa !29
  %47 = load i64, ptr %12, align 8, !tbaa !29
  %48 = sub i64 -1, %47
  %49 = load i32, ptr %11, align 4, !tbaa !10
  %50 = sext i32 %49 to i64
  %51 = udiv i64 %48, %50
  %52 = icmp ugt i64 %46, %51
  br i1 %52, label %53, label %54

53:                                               ; preds = %45, %27
  store i32 -1, ptr %4, align 4
  store i32 1, ptr %13, align 4
  br label %63

54:                                               ; preds = %45
  %55 = load i64, ptr %10, align 8, !tbaa !29
  %56 = load i32, ptr %11, align 4, !tbaa !10
  %57 = sext i32 %56 to i64
  %58 = mul i64 %55, %57
  %59 = load i64, ptr %12, align 8, !tbaa !29
  %60 = add i64 %58, %59
  store i64 %60, ptr %10, align 8, !tbaa !29
  %61 = load i64, ptr %9, align 8, !tbaa !29
  %62 = add i64 %61, 1
  store i64 %62, ptr %9, align 8, !tbaa !29
  store i32 0, ptr %13, align 4
  br label %63

63:                                               ; preds = %54, %53
  call void @llvm.lifetime.end.p0(i64 8, ptr %12) #13
  %64 = load i32, ptr %13, align 4
  switch i32 %64, label %69 [
    i32 0, label %65
  ]

65:                                               ; preds = %63
  br label %14, !llvm.loop !43

66:                                               ; preds = %25
  %67 = load i64, ptr %10, align 8, !tbaa !29
  %68 = load ptr, ptr %7, align 8, !tbaa !41
  store i64 %67, ptr %68, align 8, !tbaa !29
  store i32 1, ptr %4, align 4
  store i32 1, ptr %13, align 4
  br label %69

69:                                               ; preds = %66, %63
  call void @llvm.lifetime.end.p0(i64 4, ptr %11) #13
  call void @llvm.lifetime.end.p0(i64 8, ptr %10) #13
  call void @llvm.lifetime.end.p0(i64 8, ptr %9) #13
  call void @llvm.lifetime.end.p0(i64 4, ptr %8) #13
  %70 = load i32, ptr %4, align 4
  ret i32 %70
}