; Function Attrs: nofree norecurse nosync nounwind memory(argmem: readwrite) uwtable
define dso_local range(i32 -1, 2) i32 @string2ul_base16_async_signal_safe(ptr noundef readonly captures(none) %0, i64 noundef %1, ptr noundef writeonly captures(none) %2) local_unnamed_addr #12 {
  br label %4

4:                                                ; preds = %27, %3
  %.022 = phi i64 [ 0, %3 ], [ %30, %27 ]
  %.020 = phi i64 [ 0, %3 ], [ %29, %27 ]
  %5 = getelementptr inbounds nuw i8, ptr %0, i64 %.022
  %6 = load i8, ptr %5, align 1, !tbaa !9
  %7 = add i8 %6, -58
  %or.cond.not.i.i = icmp ult i8 %7, -10
  br i1 %or.cond.not.i.i, label %8, label %base_16_char_type.exit

8:                                                ; preds = %4
  %9 = add i8 %6, -103
  %or.cond.not.i8.i = icmp ult i8 %9, -6
  br i1 %or.cond.not.i8.i, label %10, label %base_16_char_type.exit

10:                                               ; preds = %8
  %11 = add i8 %6, -71
  %or.cond.not.i12.i = icmp ult i8 %11, -6
  %..i = select i1 %or.cond.not.i12.i, i32 -1, i32 2
  br label %base_16_char_type.exit

base_16_char_type.exit:                           ; preds = %4, %8, %10
  %.0.i = phi i32 [ 0, %4 ], [ 1, %8 ], [ %..i, %10 ]
  %12 = icmp ne i32 %.0.i, -1
  %13 = icmp ult i64 %.022, %1
  %14 = and i1 %13, %12
  br i1 %14, label %15, label %31

15:                                               ; preds = %base_16_char_type.exit
  %16 = sext i8 %6 to i64
  %17 = zext nneg i32 %.0.i to i64
  %18 = getelementptr inbounds nuw [3 x i8], ptr @string2ul_base16_async_signal_safe.ascii_to_dec, i64 0, i64 %17
  %19 = load i8, ptr %18, align 1, !tbaa !9
  %20 = sext i8 %19 to i64
  %21 = sub nsw i64 %16, %20
  %22 = icmp ugt i64 %.020, 1152921504606846975
  br i1 %22, label %.thread, label %23

23:                                               ; preds = %15
  %24 = xor i64 %21, -1
  %25 = lshr i64 %24, 4
  %26 = icmp samesign ugt i64 %.020, %25
  br i1 %26, label %.thread, label %27

27:                                               ; preds = %23
  %28 = shl nuw i64 %.020, 4
  %29 = add i64 %21, %28
  %30 = add nuw i64 %.022, 1
  br label %4, !llvm.loop !39

31:                                               ; preds = %base_16_char_type.exit
  store i64 %.020, ptr %2, align 8, !tbaa !37
  br label %.thread

.thread:                                          ; preds = %15, %23, %31
  %.2 = phi i32 [ 1, %31 ], [ -1, %23 ], [ -1, %15 ]
  ret i32 %.2
}